target datalayout = "e-m:e-p270:32:32-p271:32:32-p272:64:64-i64:64-i128:128-f80:128-n8:16:32:64-S128"
target triple = "x86_64-unknown-linux-gnu"

%"class.EA::Thread::AtomicInt" = type { %"struct.std::atomic" }
%"struct.std::atomic" = type { %"struct.std::__atomic_base" }
%"struct.std::__atomic_base" = type { i32 }
%"class.EA::StdC::CallbackManager::CallbackVector" = type { ptr, ptr, ptr, [8 x ptr] }
%"class.EA::StdC::CallbackManager" = type { %"class.EA::StdC::ICallbackManager", %"class.EA::StdC::CallbackManager::CallbackVector", %"class.EA::StdC::Stopwatch", %"class.EA::Thread::AtomicInt.0", %"class.EA::Thread::AtomicInt.0", i8, i8, i8, %"class.EA::StdC::RandomLinearCongruential", double, i64, i64, i64, i64, %"class.EA::Thread::Mutex", %"class.EA::Thread::Thread", %"class.EA::Thread::AtomicInt", [4 x i8], %"struct.EA::Thread::ThreadParameters" }
%"class.EA::StdC::ICallbackManager" = type { ptr }
%"class.EA::StdC::Stopwatch" = type { i64, i64, i32, float }
%"class.EA::Thread::AtomicInt.0" = type { %"struct.std::atomic.1" }
%"struct.std::atomic.1" = type { %"struct.std::__atomic_base.2" }
%"struct.std::__atomic_base.2" = type { i64 }
%"class.EA::StdC::RandomLinearCongruential" = type { i32 }
%"class.EA::Thread::Mutex" = type { %struct.EAMutexData }
%struct.EAMutexData = type <{ %union.pthread_mutex_t, i32, [4 x i8] }>
%union.pthread_mutex_t = type { %struct.__pthread_mutex_s }
%struct.__pthread_mutex_s = type { i32, i32, i32, i32, i32, i16, i16, %struct.__pthread_internal_list }
%struct.__pthread_internal_list = type { ptr, ptr }
%"class.EA::Thread::Thread" = type { %struct.EAThreadData }
%struct.EAThreadData = type { ptr }
%"struct.EA::Thread::ThreadParameters" = type <{ ptr, i64, i32, i32, ptr, i64, i8, [7 x i8] }>

@_ZN2EA4StdC15CallbackManager14CallbackVectorC1Ev = dso_local unnamed_addr alias void (ptr), ptr @_ZN2EA4StdC15CallbackManager14CallbackVectorC2Ev
@_ZN2EA4StdC15CallbackManager14CallbackVectorD1Ev = dso_local unnamed_addr alias void (ptr), ptr @_ZN2EA4StdC15CallbackManager14CallbackVectorD2Ev

; Function Attrs: mustprogress nounwind uwtable
define linkonce_odr dso_local noundef i32 @_ZN2EA6Thread9AtomicIntIiE8SetValueEi(ptr noundef nonnull align 4 dereferenceable(4) %this, i32 noundef %n) #1 comdat align 2 {
entry:
  %this.addr.i = alloca ptr, align 8
  %__i.addr.i = alloca i32, align 4
  %__m.addr.i = alloca i32, align 4
  %.atomictmp.i = alloca i32, align 4
  %atomic-temp.i = alloca i32, align 4
  %this.addr = alloca ptr, align 8
  %n.addr = alloca i32, align 4
  store ptr %this, ptr %this.addr, align 8
  store i32 %n, ptr %n.addr, align 4
  %this1 = load ptr, ptr %this.addr, align 8
  %mValue = getelementptr inbounds %"class.EA::Thread::AtomicInt", ptr %this1, i32 0, i32 0
  %0 = load i32, ptr %n.addr, align 4
  store ptr %mValue, ptr %this.addr.i, align 8
  store i32 %0, ptr %__i.addr.i, align 4
  store i32 5, ptr %__m.addr.i, align 4
  %this1.i = load ptr, ptr %this.addr.i, align 8
  %1 = load i32, ptr %__m.addr.i, align 4
  %2 = load i32, ptr %__i.addr.i, align 4
  store i32 %2, ptr %.atomictmp.i, align 4
  switch i32 %1, label %monotonic.i [
    i32 1, label %acquire.i
    i32 2, label %acquire.i
    i32 3, label %release.i
    i32 4, label %acqrel.i
    i32 5, label %seqcst.i
  ]

monotonic.i:                                      ; preds = %entry
  %3 = load i32, ptr %.atomictmp.i, align 4
  %4 = atomicrmw xchg ptr %this1.i, i32 %3 monotonic, align 4
  store i32 %4, ptr %atomic-temp.i, align 4
  br label %_ZNSt13__atomic_baseIiE8exchangeEiSt12memory_order.exit

acquire.i:                                        ; preds = %entry, %entry
  %5 = load i32, ptr %.atomictmp.i, align 4
  %6 = atomicrmw xchg ptr %this1.i, i32 %5 acquire, align 4
  store i32 %6, ptr %atomic-temp.i, align 4
  br label %_ZNSt13__atomic_baseIiE8exchangeEiSt12memory_order.exit

release.i:                                        ; preds = %entry
  %7 = load i32, ptr %.atomictmp.i, align 4
  %8 = atomicrmw xchg ptr %this1.i, i32 %7 release, align 4
  store i32 %8, ptr %atomic-temp.i, align 4
  br label %_ZNSt13__atomic_baseIiE8exchangeEiSt12memory_order.exit

acqrel.i:                                         ; preds = %entry
  %9 = load i32, ptr %.atomictmp.i, align 4
  %10 = atomicrmw xchg ptr %this1.i, i32 %9 acq_rel, align 4
  store i32 %10, ptr %atomic-temp.i, align 4
  br label %_ZNSt13__atomic_baseIiE8exchangeEiSt12memory_order.exit

seqcst.i:                                         ; preds = %entry
  %11 = load i32, ptr %.atomictmp.i, align 4
  %12 = atomicrmw xchg ptr %this1.i, i32 %11 seq_cst, align 4
  store i32 %12, ptr %atomic-temp.i, align 4
  br label %_ZNSt13__atomic_baseIiE8exchangeEiSt12memory_order.exit

_ZNSt13__atomic_baseIiE8exchangeEiSt12memory_order.exit: ; preds = %seqcst.i, %acqrel.i, %release.i, %acquire.i, %monotonic.i
  %13 = load i32, ptr %atomic-temp.i, align 4
  ret i32 %13
}

; Function Attrs: mustprogress nounwind uwtable
define linkonce_odr dso_local noundef i64 @_ZN2EA6Thread9AtomicIntIlE8SetValueEl(ptr noundef nonnull align 8 dereferenceable(8) %this, i64 noundef %n) #1 comdat align 2 {
entry:
  %this.addr.i = alloca ptr, align 8
  %__i.addr.i = alloca i64, align 8
  %__m.addr.i = alloca i32, align 4
  %.atomictmp.i = alloca i64, align 8
  %atomic-temp.i = alloca i64, align 8
  %this.addr = alloca ptr, align 8
  %n.addr = alloca i64, align 8
  store ptr %this, ptr %this.addr, align 8
  store i64 %n, ptr %n.addr, align 8
  %this1 = load ptr, ptr %this.addr, align 8
  %mValue = getelementptr inbounds %"class.EA::Thread::AtomicInt.0", ptr %this1, i32 0, i32 0
  %0 = load i64, ptr %n.addr, align 8
  store ptr %mValue, ptr %this.addr.i, align 8
  store i64 %0, ptr %__i.addr.i, align 8
  store i32 5, ptr %__m.addr.i, align 4
  %this1.i = load ptr, ptr %this.addr.i, align 8
  %1 = load i32, ptr %__m.addr.i, align 4
  %2 = load i64, ptr %__i.addr.i, align 8
  store i64 %2, ptr %.atomictmp.i, align 8
  switch i32 %1, label %monotonic.i [
    i32 1, label %acquire.i
    i32 2, label %acquire.i
    i32 3, label %release.i
    i32 4, label %acqrel.i
    i32 5, label %seqcst.i
  ]

monotonic.i:                                      ; preds = %entry
  %3 = load i64, ptr %.atomictmp.i, align 8
  %4 = atomicrmw xchg ptr %this1.i, i64 %3 monotonic, align 8
  store i64 %4, ptr %atomic-temp.i, align 8
  br label %_ZNSt13__atomic_baseIlE8exchangeElSt12memory_order.exit

acquire.i:                                        ; preds = %entry, %entry
  %5 = load i64, ptr %.atomictmp.i, align 8
  %6 = atomicrmw xchg ptr %this1.i, i64 %5 acquire, align 8
  store i64 %6, ptr %atomic-temp.i, align 8
  br label %_ZNSt13__atomic_baseIlE8exchangeElSt12memory_order.exit

release.i:                                        ; preds = %entry
  %7 = load i64, ptr %.atomictmp.i, align 8
  %8 = atomicrmw xchg ptr %this1.i, i64 %7 release, align 8
  store i64 %8, ptr %atomic-temp.i, align 8
  br label %_ZNSt13__atomic_baseIlE8exchangeElSt12memory_order.exit

acqrel.i:                                         ; preds = %entry
  %9 = load i64, ptr %.atomictmp.i, align 8
  %10 = atomicrmw xchg ptr %this1.i, i64 %9 acq_rel, align 8
  store i64 %10, ptr %atomic-temp.i, align 8
  br label %_ZNSt13__atomic_baseIlE8exchangeElSt12memory_order.exit

seqcst.i:                                         ; preds = %entry
  %11 = load i64, ptr %.atomictmp.i, align 8
  %12 = atomicrmw xchg ptr %this1.i, i64 %11 seq_cst, align 8
  store i64 %12, ptr %atomic-temp.i, align 8
  br label %_ZNSt13__atomic_baseIlE8exchangeElSt12memory_order.exit

_ZNSt13__atomic_baseIlE8exchangeElSt12memory_order.exit: ; preds = %seqcst.i, %acqrel.i, %release.i, %acquire.i, %monotonic.i
  %13 = load i64, ptr %atomic-temp.i, align 8
  ret i64 %13
}

; Function Attrs: mustprogress nounwind uwtable
define linkonce_odr dso_local void @_ZN2EA4StdC16ICallbackManagerD2Ev(ptr noundef nonnull align 8 dereferenceable(8) %this) unnamed_addr #1 comdat align 2 {
entry:
  %this.addr = alloca ptr, align 8
  store ptr %this, ptr %this.addr, align 8
  ret void
}

; Function Attrs: mustprogress nounwind uwtable
define linkonce_odr dso_local void @_ZN2EA4StdC9StopwatchD2Ev(ptr noundef nonnull align 8 dereferenceable(24) %this) unnamed_addr #1 comdat align 2 {
entry:
  %this.addr = alloca ptr, align 8
  store ptr %this, ptr %this.addr, align 8
  ret void
}

; Function Attrs: mustprogress uwtable
define linkonce_odr dso_local void @_ZN2EA6Thread9AtomicIntIiEC2Ei(ptr noundef nonnull align 4 dereferenceable(4) %this, i32 noundef %n) unnamed_addr #2 comdat align 2 {
entry:
  %this.addr = alloca ptr, align 8
  %n.addr = alloca i32, align 4
  store ptr %this, ptr %this.addr, align 8
  store i32 %n, ptr %n.addr, align 4
  %this1 = load ptr, ptr %this.addr, align 8
  %0 = load i32, ptr %n.addr, align 4
  %call = call noundef i32 @_ZN2EA6Thread9AtomicIntIiE8SetValueEi(ptr noundef nonnull align 4 dereferenceable(4) %this1, i32 noundef %0)
  ret void
}

; Function Attrs: mustprogress uwtable
define linkonce_odr dso_local void @_ZN2EA4StdC24RandomLinearCongruentialC2Ej(ptr noundef nonnull align 4 dereferenceable(4) %this, i32 noundef %nSeed) unnamed_addr #2 comdat align 2 {
entry:
  %this.addr = alloca ptr, align 8
  %nSeed.addr = alloca i32, align 4
  store ptr %this, ptr %this.addr, align 8
  store i32 %nSeed, ptr %nSeed.addr, align 4
  %this1 = load ptr, ptr %this.addr, align 8
  %0 = load i32, ptr %nSeed.addr, align 4
  call void @_ZN2EA4StdC24RandomLinearCongruential7SetSeedEj(ptr noundef nonnull align 4 dereferenceable(4) %this1, i32 noundef %0)
  ret void
}

; Function Attrs: mustprogress uwtable
define linkonce_odr dso_local void @_ZN2EA6Thread9AtomicIntIlEC2El(ptr noundef nonnull align 8 dereferenceable(8) %this, i64 noundef %n) unnamed_addr #2 comdat align 2 {
entry:
  %this.addr = alloca ptr, align 8
  %n.addr = alloca i64, align 8
  store ptr %this, ptr %this.addr, align 8
  store i64 %n, ptr %n.addr, align 8
  %this1 = load ptr, ptr %this.addr, align 8
  %0 = load i64, ptr %n.addr, align 8
  %call = call noundef i64 @_ZN2EA6Thread9AtomicIntIlE8SetValueEl(ptr noundef nonnull align 8 dereferenceable(8) %this1, i64 noundef %0)
  ret void
}

; Function Attrs: mustprogress nounwind uwtable
define linkonce_odr dso_local void @_ZN2EA4StdC16ICallbackManagerC2Ev(ptr noundef nonnull align 8 dereferenceable(8) %this) unnamed_addr #1 comdat align 2 {
entry:
  %this.addr = alloca ptr, align 8
  store ptr %this, ptr %this.addr, align 8
  %this1 = load ptr, ptr %this.addr, align 8
  store ptr getelementptr inbounds ({ [9 x ptr] }, ptr @_ZTVN2EA4StdC16ICallbackManagerE, i32 0, i32 0, i32 2), ptr %this1, align 8
  ret void
}

; Function Attrs: mustprogress uwtable
define dso_local void @_ZN2EA4StdC15CallbackManagerC2Ev(ptr noundef nonnull align 8 dereferenceable(296) %this) unnamed_addr #2 align 2 personality ptr @__gxx_personality_v0 {
entry:
  %this.addr = alloca ptr, align 8
  %exn.slot = alloca ptr, align 8
  %ehselector.slot = alloca i32, align 4
  store ptr %this, ptr %this.addr, align 8
  %this1 = load ptr, ptr %this.addr, align 8
  call void @_ZN2EA4StdC16ICallbackManagerC2Ev(ptr noundef nonnull align 8 dereferenceable(8) %this1) #10
  store ptr getelementptr inbounds ({ [9 x ptr] }, ptr @_ZTVN2EA4StdC15CallbackManagerE, i32 0, i32 0, i32 2), ptr %this1, align 8
  %mCallbackArray = getelementptr inbounds %"class.EA::StdC::CallbackManager", ptr %this1, i32 0, i32 1
  invoke void @_ZN2EA4StdC15CallbackManager14CallbackVectorC1Ev(ptr noundef nonnull align 8 dereferenceable(88) %mCallbackArray)
          to label %invoke.cont unwind label %lpad

invoke.cont:                                      ; preds = %entry
  %mStopwatch = getelementptr inbounds %"class.EA::StdC::CallbackManager", ptr %this1, i32 0, i32 2
  invoke void @_ZN2EA4StdC9StopwatchC1Eib(ptr noundef nonnull align 8 dereferenceable(24) %mStopwatch, i32 noundef 2, i1 noundef zeroext false)
          to label %invoke.cont3 unwind label %lpad2

invoke.cont3:                                     ; preds = %invoke.cont
  %mTickCounter = getelementptr inbounds %"class.EA::StdC::CallbackManager", ptr %this1, i32 0, i32 3
  invoke void @_ZN2EA6Thread9AtomicIntIlEC2El(ptr noundef nonnull align 8 dereferenceable(8) %mTickCounter, i64 noundef 0)
          to label %invoke.cont5 unwind label %lpad4

invoke.cont5:                                     ; preds = %invoke.cont3
  %mUserEventCounter = getelementptr inbounds %"class.EA::StdC::CallbackManager", ptr %this1, i32 0, i32 4
  invoke void @_ZN2EA6Thread9AtomicIntIlEC2El(ptr noundef nonnull align 8 dereferenceable(8) %mUserEventCounter, i64 noundef 0)
          to label %invoke.cont6 unwind label %lpad4

invoke.cont6:                                     ; preds = %invoke.cont5
  %mbInitialized = getelementptr inbounds %"class.EA::StdC::CallbackManager", ptr %this1, i32 0, i32 5
  store i8 0, ptr %mbInitialized, align 8
  %mbRunning = getelementptr inbounds %"class.EA::StdC::CallbackManager", ptr %this1, i32 0, i32 6
  store volatile i8 0, ptr %mbRunning, align 1
  %mbAsync = getelementptr inbounds %"class.EA::StdC::CallbackManager", ptr %this1, i32 0, i32 7
  store i8 0, ptr %mbAsync, align 2
  %mRandom = getelementptr inbounds %"class.EA::StdC::CallbackManager", ptr %this1, i32 0, i32 8
  invoke void @_ZN2EA4StdC24RandomLinearCongruentialC2Ej(ptr noundef nonnull align 4 dereferenceable(4) %mRandom, i32 noundef -1)
          to label %invoke.cont7 unwind label %lpad4

invoke.cont7:                                     ; preds = %invoke.cont6
  %mNSecPerTick = getelementptr inbounds %"class.EA::StdC::CallbackManager", ptr %this1, i32 0, i32 9
  store double 1.000000e+07, ptr %mNSecPerTick, align 8
  %mNSecPerTickLastTimeMeasured = getelementptr inbounds %"class.EA::StdC::CallbackManager", ptr %this1, i32 0, i32 10
  store i64 -9223372036854775808, ptr %mNSecPerTickLastTimeMeasured, align 8
  %mNSecPerTickLastTickMeasured = getelementptr inbounds %"class.EA::StdC::CallbackManager", ptr %this1, i32 0, i32 11
  store i64 -9223372036854775808, ptr %mNSecPerTickLastTickMeasured, align 8
  %mNextCallbackEventTime = getelementptr inbounds %"class.EA::StdC::CallbackManager", ptr %this1, i32 0, i32 12
  store i64 0, ptr %mNextCallbackEventTime, align 8
  %mNextCallbackEventTick = getelementptr inbounds %"class.EA::StdC::CallbackManager", ptr %this1, i32 0, i32 13
  store i64 0, ptr %mNextCallbackEventTick, align 8
  %mMutex = getelementptr inbounds %"class.EA::StdC::CallbackManager", ptr %this1, i32 0, i32 14
  invoke void @_ZN2EA6Thread5MutexC1EPKNS0_15MutexParametersEb(ptr noundef nonnull align 8 dereferenceable(48) %mMutex, ptr noundef null, i1 noundef zeroext true)
          to label %invoke.cont8 unwind label %lpad4

invoke.cont8:                                     ; preds = %invoke.cont7
  %mThread = getelementptr inbounds %"class.EA::StdC::CallbackManager", ptr %this1, i32 0, i32 15
  invoke void @_ZN2EA6Thread6ThreadC1Ev(ptr noundef nonnull align 8 dereferenceable(8) %mThread)
          to label %invoke.cont10 unwind label %lpad9

invoke.cont10:                                    ; preds = %invoke.cont8
  %mbThreadStarted = getelementptr inbounds %"class.EA::StdC::CallbackManager", ptr %this1, i32 0, i32 16
  invoke void @_ZN2EA6Thread9AtomicIntIiEC2Ei(ptr noundef nonnull align 4 dereferenceable(4) %mbThreadStarted, i32 noundef 0)
          to label %invoke.cont12 unwind label %lpad11

invoke.cont12:                                    ; preds = %invoke.cont10
  %mThreadParam = getelementptr inbounds %"class.EA::StdC::CallbackManager", ptr %this1, i32 0, i32 18
  invoke void @_ZN2EA6Thread16ThreadParametersC1Ev(ptr noundef nonnull align 8 dereferenceable(41) %mThreadParam)
          to label %invoke.cont13 unwind label %lpad11

invoke.cont13:                                    ; preds = %invoke.cont12
  ret void

lpad:                                             ; preds = %entry
  %0 = landingpad { ptr, i32 }
          cleanup
  %1 = extractvalue { ptr, i32 } %0, 0
  store ptr %1, ptr %exn.slot, align 8
  %2 = extractvalue { ptr, i32 } %0, 1
  store i32 %2, ptr %ehselector.slot, align 4
  br label %ehcleanup16

lpad2:                                            ; preds = %invoke.cont
  %3 = landingpad { ptr, i32 }
          cleanup
  %4 = extractvalue { ptr, i32 } %3, 0
  store ptr %4, ptr %exn.slot, align 8
  %5 = extractvalue { ptr, i32 } %3, 1
  store i32 %5, ptr %ehselector.slot, align 4
  br label %ehcleanup15

lpad4:                                            ; preds = %invoke.cont7, %invoke.cont6, %invoke.cont5, %invoke.cont3
  %6 = landingpad { ptr, i32 }
          cleanup
  %7 = extractvalue { ptr, i32 } %6, 0
  store ptr %7, ptr %exn.slot, align 8
  %8 = extractvalue { ptr, i32 } %6, 1
  store i32 %8, ptr %ehselector.slot, align 4
  br label %ehcleanup14

lpad9:                                            ; preds = %invoke.cont8
  %9 = landingpad { ptr, i32 }
          cleanup
  %10 = extractvalue { ptr, i32 } %9, 0
  store ptr %10, ptr %exn.slot, align 8
  %11 = extractvalue { ptr, i32 } %9, 1
  store i32 %11, ptr %ehselector.slot, align 4
  br label %ehcleanup

lpad11:                                           ; preds = %invoke.cont12, %invoke.cont10
  %12 = landingpad { ptr, i32 }
          cleanup
  %13 = extractvalue { ptr, i32 } %12, 0
  store ptr %13, ptr %exn.slot, align 8
  %14 = extractvalue { ptr, i32 } %12, 1
  store i32 %14, ptr %ehselector.slot, align 4
  call void @_ZN2EA6Thread6ThreadD1Ev(ptr noundef nonnull align 8 dereferenceable(8) %mThread) #10
  br label %ehcleanup

ehcleanup:                                        ; preds = %lpad11, %lpad9
  call void @_ZN2EA6Thread5MutexD1Ev(ptr noundef nonnull align 8 dereferenceable(48) %mMutex) #10
  br label %ehcleanup14

ehcleanup14:                                      ; preds = %ehcleanup, %lpad4
  call void @_ZN2EA4StdC9StopwatchD2Ev(ptr noundef nonnull align 8 dereferenceable(24) %mStopwatch) #10
  br label %ehcleanup15

ehcleanup15:                                      ; preds = %ehcleanup14, %lpad2
  call void @_ZN2EA4StdC15CallbackManager14CallbackVectorD1Ev(ptr noundef nonnull align 8 dereferenceable(88) %mCallbackArray) #10
  br label %ehcleanup16

ehcleanup16:                                      ; preds = %ehcleanup15, %lpad
  call void @_ZN2EA4StdC16ICallbackManagerD2Ev(ptr noundef nonnull align 8 dereferenceable(8) %this1) #10
  br label %eh.resume

eh.resume:                                        ; preds = %ehcleanup16
  %exn = load ptr, ptr %exn.slot, align 8
  %sel = load i32, ptr %ehselector.slot, align 4
  %lpad.val = insertvalue { ptr, i32 } poison, ptr %exn, 0
  %lpad.val17 = insertvalue { ptr, i32 } %lpad.val, i32 %sel, 1
  resume { ptr, i32 } %lpad.val17
}