; Function Attrs: mustprogress uwtable
define dso_local void @_ZN2EA4StdC15CallbackManagerC2Ev(ptr noundef nonnull align 8 dereferenceable(296) %this) unnamed_addr #1 align 2 personality ptr @__gxx_personality_v0 {
entry:
  store ptr getelementptr inbounds ({ [9 x ptr] }, ptr @_ZTVN2EA4StdC15CallbackManagerE, i64 0, i32 0, i64 2), ptr %this, align 8
  %mCallbackArray = getelementptr inbounds i8, ptr %this, i64 8
  %mLocalBuffer.i = getelementptr inbounds i8, ptr %this, i64 32
  store ptr %mLocalBuffer.i, ptr %mCallbackArray, align 8
  %mpEnd.i = getelementptr inbounds i8, ptr %this, i64 16
  store ptr %mLocalBuffer.i, ptr %mpEnd.i, align 8
  %mpCapacity.i = getelementptr inbounds i8, ptr %this, i64 24
  %add.ptr.i = getelementptr inbounds i8, ptr %this, i64 96
  store ptr %add.ptr.i, ptr %mpCapacity.i, align 8
  invoke void @_ZN2EA4StdC9StopwatchC1Eib(ptr noundef nonnull align 8 dereferenceable(24) %add.ptr.i, i32 noundef 2, i1 noundef zeroext false)
          to label %invoke.cont6 unwind label %lpad2

invoke.cont6:                                     ; preds = %entry
  %mTickCounter = getelementptr inbounds i8, ptr %this, i64 120
  %0 = atomicrmw xchg ptr %mTickCounter, i64 0 seq_cst, align 8
  %mUserEventCounter = getelementptr inbounds i8, ptr %this, i64 128
  %1 = atomicrmw xchg ptr %mUserEventCounter, i64 0 seq_cst, align 8
  %mbInitialized = getelementptr inbounds i8, ptr %this, i64 136
  store i8 0, ptr %mbInitialized, align 8
  %mbRunning = getelementptr inbounds i8, ptr %this, i64 137
  store volatile i8 0, ptr %mbRunning, align 1
  %mbAsync = getelementptr inbounds i8, ptr %this, i64 138
  store i8 0, ptr %mbAsync, align 2
  %mRandom = getelementptr inbounds i8, ptr %this, i64 140
  invoke void @_ZN2EA4StdC24RandomLinearCongruential7SetSeedEj(ptr noundef nonnull align 4 dereferenceable(4) %mRandom, i32 noundef -1)
          to label %invoke.cont7 unwind label %lpad4

invoke.cont7:                                     ; preds = %invoke.cont6
  %mNSecPerTick = getelementptr inbounds i8, ptr %this, i64 144
  store double 1.000000e+07, ptr %mNSecPerTick, align 8
  %mNSecPerTickLastTimeMeasured = getelementptr inbounds i8, ptr %this, i64 152
  store i64 -9223372036854775808, ptr %mNSecPerTickLastTimeMeasured, align 8
  %mNSecPerTickLastTickMeasured = getelementptr inbounds i8, ptr %this, i64 160
  store i64 -9223372036854775808, ptr %mNSecPerTickLastTickMeasured, align 8
  %mNextCallbackEventTime = getelementptr inbounds i8, ptr %this, i64 168
  %mMutex = getelementptr inbounds i8, ptr %this, i64 184
  tail call void @llvm.memset.p0.i64(ptr noundef nonnull align 8 dereferenceable(16) %mNextCallbackEventTime, i8 0, i64 16, i1 false)
  invoke void @_ZN2EA6Thread5MutexC1EPKNS0_15MutexParametersEb(ptr noundef nonnull align 8 dereferenceable(48) %mMutex, ptr noundef null, i1 noundef zeroext true)
          to label %invoke.cont8 unwind label %lpad4

invoke.cont8:                                     ; preds = %invoke.cont7
  %mThread = getelementptr inbounds i8, ptr %this, i64 232
  invoke void @_ZN2EA6Thread6ThreadC1Ev(ptr noundef nonnull align 8 dereferenceable(8) %mThread)
          to label %invoke.cont12 unwind label %lpad9

invoke.cont12:                                    ; preds = %invoke.cont8
  %mbThreadStarted = getelementptr inbounds i8, ptr %this, i64 240
  %2 = atomicrmw xchg ptr %mbThreadStarted, i32 0 seq_cst, align 4
  %mThreadParam = getelementptr inbounds i8, ptr %this, i64 248
  invoke void @_ZN2EA6Thread16ThreadParametersC1Ev(ptr noundef nonnull align 8 dereferenceable(41) %mThreadParam)
          to label %invoke.cont13 unwind label %lpad11

invoke.cont13:                                    ; preds = %invoke.cont12
  ret void

lpad2:                                            ; preds = %entry
  %3 = landingpad { ptr, i32 }
          cleanup
  br label %ehcleanup15

lpad4:                                            ; preds = %invoke.cont6, %invoke.cont7
  %4 = landingpad { ptr, i32 }
          cleanup
  br label %ehcleanup15

lpad9:                                            ; preds = %invoke.cont8
  %5 = landingpad { ptr, i32 }
          cleanup
  br label %ehcleanup

lpad11:                                           ; preds = %invoke.cont12
  %6 = landingpad { ptr, i32 }
          cleanup
  tail call void @_ZN2EA6Thread6ThreadD1Ev(ptr noundef nonnull align 8 dereferenceable(8) %mThread) #14
  br label %ehcleanup

ehcleanup:                                        ; preds = %lpad11, %lpad9
  %.pn = phi { ptr, i32 } [ %6, %lpad11 ], [ %5, %lpad9 ]
  tail call void @_ZN2EA6Thread5MutexD1Ev(ptr noundef nonnull align 8 dereferenceable(48) %mMutex) #14
  br label %ehcleanup15

ehcleanup15:                                      ; preds = %lpad4, %ehcleanup, %lpad2
  %.pn.pn.pn = phi { ptr, i32 } [ %3, %lpad2 ], [ %.pn, %ehcleanup ], [ %4, %lpad4 ]
  %7 = load ptr, ptr %mCallbackArray, align 8
  %cmp.not.i = icmp eq ptr %7, %mLocalBuffer.i
  %isnull.i = icmp eq ptr %7, null
  %or.cond.i = or i1 %cmp.not.i, %isnull.i
  br i1 %or.cond.i, label %_ZN2EA4StdC15CallbackManager14CallbackVectorD2Ev.exit, label %delete.notnull.i

delete.notnull.i:                                 ; preds = %ehcleanup15
  tail call void @_ZdaPv(ptr noundef nonnull %7) #19
  br label %_ZN2EA4StdC15CallbackManager14CallbackVectorD2Ev.exit

_ZN2EA4StdC15CallbackManager14CallbackVectorD2Ev.exit: ; preds = %ehcleanup15, %delete.notnull.i
  resume { ptr, i32 } %.pn.pn.pn
}